Certificate:
    Data:
        Version: 3 (0x2)
        Serial Number: 1 (0x1)
    Signature Algorithm: sha256WithRSAEncryption
        Issuer: C=FR, ST=Radius, L=Somewhere, O=Example Inc./emailAddress=admin@example.org, CN=Example Certificate Authority
        Validity
            Not Before: Jul 12 17:41:50 2017 GMT
            Not After : Sep 10 17:41:50 2017 GMT
        Subject: C=FR, ST=Radius, O=Example Inc., CN=Example Server Certificate/emailAddress=admin@example.org
        Subject Public Key Info:
            Public Key Algorithm: rsaEncryption
                Public-Key: (2048 bit)
                Modulus:
                    00:e1:98:7c:4e:aa:c6:71:e4:fd:33:15:e2:7b:71:
                    29:35:0d:ae:8d:15:86:88:cf:90:af:da:2f:4e:82:
                    2b:96:1b:f5:52:5e:45:33:b8:0e:3d:5f:f9:69:d1:
                    ea:48:21:35:d7:d1:78:6e:5a:d9:b8:b7:9c:2e:8b:
                    62:29:d7:a1:f3:86:40:4a:82:e4:48:c4:5e:6b:4c:
                    9d:03:cc:93:39:2d:85:47:85:f4:46:77:80:28:4a:
                    f0:a7:2f:2e:f5:2c:16:c1:31:70:02:ed:76:75:35:
                    11:ef:00:90:43:c3:9d:40:3c:4c:31:18:de:f1:75:
                    03:08:95:48:75:11:e2:d2:27:06:fc:9a:ba:41:dd:
                    7f:2b:08:a3:99:18:cd:d3:d7:94:5d:5b:95:41:1f:
                    34:fb:b5:cf:ad:fe:4d:60:89:f5:8c:7f:30:5d:9f:
                    e4:30:92:a3:92:8d:96:11:7b:8b:07:97:1b:50:0b:
                    c1:c0:cb:4b:93:82:d7:79:bd:86:a4:0c:b2:4b:e5:
                    1f:7e:e5:ea:0c:00:b4:fb:56:ab:48:57:90:85:42:
                    fe:c3:1a:02:e9:73:ab:e0:c2:03:cc:89:6b:3b:c9:
                    23:db:21:99:66:ea:21:69:86:e7:81:71:fb:d8:6b:
                    6c:fd:e6:71:00:a0:d6:1c:65:82:60:a4:82:ee:59:
                    7b:05
                Exponent: 65537 (0x10001)
        X509v3 extensions:
            X509v3 Extended Key Usage: 
                TLS Web Server Authentication
            X509v3 CRL Distribution Points: 

                Full Name:
                  URI:http://www.example.com/example_ca.crl

    Signature Algorithm: sha256WithRSAEncryption
         c2:84:85:6b:e3:d6:af:92:aa:ee:55:c0:6b:b5:fe:92:1b:d5:
         e7:83:9a:ee:a3:fb:12:fb:33:7b:69:03:12:10:a3:84:f7:d3:
         ee:ab:b1:06:44:f9:d0:40:8c:5e:e0:9e:5f:d8:df:e0:8b:07:
         07:84:e3:f6:d9:dd:8a:09:b1:ee:a2:e5:54:68:e1:14:b5:a3:
         87:d6:8e:56:40:b0:11:6f:d5:91:da:de:a4:fb:b1:f7:98:72:
         cd:48:58:9f:34:fb:3d:9d:95:fd:2c:67:53:82:ea:b3:ff:fd:
         d9:79:96:88:69:f3:24:a4:90:1c:04:62:2d:d5:c6:ac:45:81:
         7e:8c:0d:68:95:9b:c7:25:ca:6b:99:93:a6:51:67:ad:c6:19:
         c9:4c:c3:0d:25:c9:a2:e9:c8:2c:bb:65:b1:54:20:93:cc:19:
         b9:dc:64:f8:77:0b:5f:8c:03:07:4a:7c:22:46:2e:7e:18:37:
         58:4e:2b:74:84:db:e4:56:0a:cf:72:3a:55:75:87:bc:7f:b7:
         a5:b9:24:f7:1d:35:57:2d:6d:41:47:30:d1:57:f4:3f:4c:e6:
         f5:40:39:f4:f8:a7:f3:39:05:95:fd:8d:48:5d:ee:6c:60:f4:
         c1:af:9b:4d:c0:77:69:46:5a:e8:c0:10:ba:ee:12:9a:14:72:
         95:3b:2d:a7
-----BEGIN CERTIFICATE-----
MIID2jCCAsKgAwIBAgIBATANBgkqhkiG9w0BAQsFADCBkzELMAkGA1UEBhMCRlIx
DzANBgNVBAgMBlJhZGl1czESMBAGA1UEBwwJU29tZXdoZXJlMRUwEwYDVQQKDAxF
eGFtcGxlIEluYy4xIDAeBgkqhkiG9w0BCQEWEWFkbWluQGV4YW1wbGUub3JnMSYw
JAYDVQQDDB1FeGFtcGxlIENlcnRpZmljYXRlIEF1dGhvcml0eTAeFw0xNzA3MTIx
NzQxNTBaFw0xNzA5MTAxNzQxNTBaMHwxCzAJBgNVBAYTAkZSMQ8wDQYDVQQIDAZS
YWRpdXMxFTATBgNVBAoMDEV4YW1wbGUgSW5jLjEjMCEGA1UEAwwaRXhhbXBsZSBT
ZXJ2ZXIgQ2VydGlmaWNhdGUxIDAeBgkqhkiG9w0BCQEWEWFkbWluQGV4YW1wbGUu
b3JnMIIBIjANBgkqhkiG9w0BAQEFAAOCAQ8AMIIBCgKCAQEA4Zh8TqrGceT9MxXi
e3EpNQ2ujRWGiM+Qr9ovToIrlhv1Ul5FM7gOPV/5adHqSCE119F4blrZuLecLoti
Kdeh84ZASoLkSMRea0ydA8yTOS2FR4X0RneAKErwpy8u9SwWwTFwAu12dTUR7wCQ
Q8OdQDxMMRje8XUDCJVIdRHi0icG/Jq6Qd1/KwijmRjN09eUXVuVQR80+7XPrf5N
YIn1jH8wXZ/kMJKjko2WEXuLB5cbUAvBwMtLk4LXeb2GpAyyS+UffuXqDAC0+1ar
SFeQhUL+wxoC6XOr4MIDzIlrO8kj2yGZZuohaYbngXH72Gts/eZxAKDWHGWCYKSC
7ll7BQIDAQABo08wTTATBgNVHSUEDDAKBggrBgEFBQcDATA2BgNVHR8ELzAtMCug
KaAnhiVodHRwOi8vd3d3LmV4YW1wbGUuY29tL2V4YW1wbGVfY2EuY3JsMA0GCSqG
SIb3DQEBCwUAA4IBAQDChIVr49avkqruVcBrtf6SG9Xng5ruo/sS+zN7aQMSEKOE
99Puq7EGRPnQQIxe4J5f2N/giwcHhOP22d2KCbHuouVUaOEUtaOH1o5WQLARb9WR
2t6k+7H3mHLNSFifNPs9nZX9LGdTguqz//3ZeZaIafMkpJAcBGIt1casRYF+jA1o
lZvHJcprmZOmUWetxhnJTMMNJcmi6cgsu2WxVCCTzBm53GT4dwtfjAMHSnwiRi5+
GDdYTit0hNvkVgrPcjpVdYe8f7eluST3HTVXLW1BRzDRV/Q/TOb1QDn0+KfzOQWV
/Y1IXe5sYPTBr5tNwHdpRlrowBC67hKaFHKVOy2n
-----END CERTIFICATE-----
