Certificate:
    Data:
        Version: 3 (0x2)
        Serial Number: 2 (0x2)
    Signature Algorithm: sha256WithRSAEncryption
        Issuer: C=FR, ST=Radius, L=Somewhere, O=Example Inc./emailAddress=admin@example.org, CN=Example Certificate Authority
        Validity
            Not Before: Jul 12 17:41:50 2017 GMT
            Not After : Sep 10 17:41:50 2017 GMT
        Subject: C=FR, ST=Radius, O=Example Inc., CN=user@example.org/emailAddress=user@example.org
        Subject Public Key Info:
            Public Key Algorithm: rsaEncryption
                Public-Key: (2048 bit)
                Modulus:
                    00:a7:29:1a:e3:db:2e:58:39:c3:d3:31:9c:a9:70:
                    d9:11:f7:da:42:37:f9:a7:ad:22:cd:6f:f7:10:4a:
                    ce:c9:55:01:65:a3:d5:d6:0d:a6:41:6b:d2:cc:69:
                    30:b0:78:e5:43:1f:8d:aa:f2:d4:9f:ca:0c:f6:b2:
                    2e:6d:97:e4:9e:58:5a:57:30:fa:fa:c6:ef:16:49:
                    8e:ef:63:24:be:dc:85:79:09:b0:b1:c1:6d:3e:0d:
                    e4:d4:a6:53:d2:65:36:2a:39:e9:a8:1e:83:48:9d:
                    ba:4a:bc:a0:95:f8:a6:e5:e0:9f:55:24:de:c9:0e:
                    0e:6d:a1:ea:f0:24:a7:b7:56:82:2d:8b:0b:cf:75:
                    03:88:40:35:54:c1:fd:45:2a:79:c5:2e:c0:b5:5b:
                    2b:0b:3c:1d:26:3c:6d:e2:c2:56:a7:6a:c9:73:b5:
                    f5:02:ec:e9:e8:66:bb:51:54:a9:3c:28:76:30:c2:
                    61:10:99:08:c5:25:7d:f0:53:0b:48:a8:17:93:58:
                    d1:0c:8d:14:b8:76:41:fb:50:70:32:0c:43:dc:15:
                    2a:61:11:66:36:f1:69:82:22:b6:5a:0a:28:04:4d:
                    18:09:25:6e:99:65:23:50:ff:d5:c4:13:f9:a3:93:
                    c3:76:43:e6:22:d8:61:b0:35:76:f5:99:e9:f7:d4:
                    f1:2d
                Exponent: 65537 (0x10001)
        X509v3 extensions:
            X509v3 Extended Key Usage: 
                TLS Web Client Authentication
            X509v3 CRL Distribution Points: 

                Full Name:
                  URI:http://www.example.com/example_ca.crl

    Signature Algorithm: sha256WithRSAEncryption
         4f:fc:ab:b6:07:47:c7:5f:19:b1:55:b9:3f:b4:45:c6:9d:e7:
         4f:a1:76:bd:1c:85:6a:25:e7:1e:ec:50:fd:2e:cb:e7:1d:b7:
         a2:4c:73:5f:92:96:96:81:06:12:96:c0:06:af:67:c6:a6:80:
         cf:e6:ce:2c:4a:80:3b:03:4b:91:d1:d6:48:e4:6b:e2:54:51:
         5e:46:b2:45:17:f2:71:3a:b5:76:f0:82:e7:5d:f0:56:69:1c:
         3a:93:ab:93:23:5c:30:ea:3d:25:94:00:74:cd:eb:96:e5:3e:
         38:1e:15:98:cb:37:14:85:b5:be:5c:92:13:92:fa:e0:9f:81:
         25:30:cf:8c:be:ab:d7:0e:98:cb:10:a8:65:4a:d7:40:60:43:
         3e:a6:1b:09:b0:67:df:e7:97:f7:fa:a3:7f:fc:10:6e:0a:9c:
         91:f4:34:60:5c:97:17:87:b7:0c:37:12:8a:93:47:2c:3c:85:
         c2:13:fa:2f:b5:7f:74:56:4b:bf:29:2e:99:b7:c4:24:6c:8c:
         32:af:33:a7:55:a5:54:4a:e5:7f:37:73:52:7e:25:be:5c:c5:
         2c:e9:f1:5f:3f:65:18:dd:f3:1a:d6:58:f7:7a:b7:f9:3f:56:
         e6:01:9d:46:7c:7e:c2:1f:b1:84:2d:6f:d1:e2:63:d2:aa:4f:
         65:25:9b:3e
-----BEGIN CERTIFICATE-----
MIIDzzCCAregAwIBAgIBAjANBgkqhkiG9w0BAQsFADCBkzELMAkGA1UEBhMCRlIx
DzANBgNVBAgMBlJhZGl1czESMBAGA1UEBwwJU29tZXdoZXJlMRUwEwYDVQQKDAxF
eGFtcGxlIEluYy4xIDAeBgkqhkiG9w0BCQEWEWFkbWluQGV4YW1wbGUub3JnMSYw
JAYDVQQDDB1FeGFtcGxlIENlcnRpZmljYXRlIEF1dGhvcml0eTAeFw0xNzA3MTIx
NzQxNTBaFw0xNzA5MTAxNzQxNTBaMHExCzAJBgNVBAYTAkZSMQ8wDQYDVQQIDAZS
YWRpdXMxFTATBgNVBAoMDEV4YW1wbGUgSW5jLjEZMBcGA1UEAwwQdXNlckBleGFt
cGxlLm9yZzEfMB0GCSqGSIb3DQEJARYQdXNlckBleGFtcGxlLm9yZzCCASIwDQYJ
KoZIhvcNAQEBBQADggEPADCCAQoCggEBAKcpGuPbLlg5w9MxnKlw2RH32kI3+aet
Is1v9xBKzslVAWWj1dYNpkFr0sxpMLB45UMfjary1J/KDPayLm2X5J5YWlcw+vrG
7xZJju9jJL7chXkJsLHBbT4N5NSmU9JlNio56ageg0idukq8oJX4puXgn1Uk3skO
Dm2h6vAkp7dWgi2LC891A4hANVTB/UUqecUuwLVbKws8HSY8beLCVqdqyXO19QLs
6ehmu1FUqTwodjDCYRCZCMUlffBTC0ioF5NY0QyNFLh2QftQcDIMQ9wVKmERZjbx
aYIitloKKARNGAklbpllI1D/1cQT+aOTw3ZD5iLYYbA1dvWZ6ffU8S0CAwEAAaNP
ME0wEwYDVR0lBAwwCgYIKwYBBQUHAwIwNgYDVR0fBC8wLTAroCmgJ4YlaHR0cDov
L3d3dy5leGFtcGxlLmNvbS9leGFtcGxlX2NhLmNybDANBgkqhkiG9w0BAQsFAAOC
AQEAT/yrtgdHx18ZsVW5P7RFxp3nT6F2vRyFaiXnHuxQ/S7L5x23okxzX5KWloEG
EpbABq9nxqaAz+bOLEqAOwNLkdHWSORr4lRRXkayRRfycTq1dvCC513wVmkcOpOr
kyNcMOo9JZQAdM3rluU+OB4VmMs3FIW1vlySE5L64J+BJTDPjL6r1w6YyxCoZUrX
QGBDPqYbCbBn3+eX9/qjf/wQbgqckfQ0YFyXF4e3DDcSipNHLDyFwhP6L7V/dFZL
vykumbfEJGyMMq8zp1WlVErlfzdzUn4lvlzFLOnxXz9lGN3zGtZY93q3+T9W5gGd
Rnx+wh+xhC1v0eJj0qpPZSWbPg==
-----END CERTIFICATE-----
